target datalayout = "e-m:e-p270:32:32-p271:32:32-p272:64:64-i64:64-i128:128-f80:128-n8:16:32:64-S128"
target triple = "x86_64-unknown-linux-gnu"

%"class.pugi::xpath_node_set" = type { i32, [1 x %"class.pugi::xpath_node"], ptr, ptr }
%"class.pugi::xpath_node" = type { %"class.pugi::xml_node", %"class.pugi::xml_attribute" }
%"class.pugi::xml_node" = type { ptr }
%"class.pugi::xml_attribute" = type { ptr }
%"class.pugi::xpath_variable" = type { i32, ptr }
%"struct.pugi::impl::(anonymous namespace)::xpath_variable_node_set" = type <{ %"class.pugi::xpath_variable", %"class.pugi::xpath_node_set", [1 x i8], [7 x i8] }>
%"struct.pugi::impl::(anonymous namespace)::xpath_variable_string" = type <{ %"class.pugi::xpath_variable", ptr, [1 x i8], [7 x i8] }>
%"class.pugi::xpath_variable_set" = type { [64 x ptr] }

@_ZN4pugi4impl12_GLOBAL__N_138xml_memory_management_function_storageIiE10deallocateE = internal global ptr @_ZN4pugi4impl12_GLOBAL__N_118default_deallocateEPv, align 8
@_ZN4pugi14xpath_node_setD1Ev = unnamed_addr alias void (ptr), ptr @_ZN4pugi14xpath_node_setD2Ev

; Function Attrs: mustprogress nounwind uwtable
define internal void @_ZN4pugi4impl12_GLOBAL__N_121xpath_variable_stringD2Ev(ptr noundef nonnull align 8 dereferenceable(25) %this) unnamed_addr #0 align 2 personality ptr @__gxx_personality_v0 {
entry:
  %this.addr = alloca ptr, align 8
  store ptr %this, ptr %this.addr, align 8
  %this1 = load ptr, ptr %this.addr, align 8
  %value = getelementptr inbounds %"struct.pugi::impl::(anonymous namespace)::xpath_variable_string", ptr %this1, i32 0, i32 1
  %0 = load ptr, ptr %value, align 8
  %tobool = icmp ne ptr %0, null
  br i1 %tobool, label %if.then, label %if.end

if.then:                                          ; preds = %entry
  %1 = load ptr, ptr @_ZN4pugi4impl12_GLOBAL__N_138xml_memory_management_function_storageIiE10deallocateE, align 8
  %value2 = getelementptr inbounds %"struct.pugi::impl::(anonymous namespace)::xpath_variable_string", ptr %this1, i32 0, i32 1
  %2 = load ptr, ptr %value2, align 8
  invoke void %1(ptr noundef %2)
          to label %invoke.cont unwind label %terminate.lpad

invoke.cont:                                      ; preds = %if.then
  br label %if.end

if.end:                                           ; preds = %invoke.cont, %entry
  ret void

terminate.lpad:                                   ; preds = %if.then
  %3 = landingpad { ptr, i32 }
          catch ptr null
  %4 = extractvalue { ptr, i32 } %3, 0
  call void @__clang_call_terminate(ptr %4) #14
  unreachable
}

; Function Attrs: mustprogress nounwind uwtable
define internal void @_ZN4pugi4impl12_GLOBAL__N_123xpath_variable_node_setD2Ev(ptr noundef nonnull align 8 dereferenceable(57) %this) unnamed_addr #0 align 2 {
entry:
  %this.addr = alloca ptr, align 8
  store ptr %this, ptr %this.addr, align 8
  %this1 = load ptr, ptr %this.addr, align 8
  %value = getelementptr inbounds %"struct.pugi::impl::(anonymous namespace)::xpath_variable_node_set", ptr %this1, i32 0, i32 1
  call void @_ZN4pugi14xpath_node_setD1Ev(ptr noundef nonnull align 8 dereferenceable(40) %value) #9
  ret void
}

; Function Attrs: mustprogress uwtable
define internal void @_ZN4pugi4impl12_GLOBAL__N_121delete_xpath_variableINS1_22xpath_variable_booleanEEEvPT_(ptr noundef %var) #2 {
entry:
  %var.addr = alloca ptr, align 8
  store ptr %var, ptr %var.addr, align 8
  %0 = load ptr, ptr @_ZN4pugi4impl12_GLOBAL__N_138xml_memory_management_function_storageIiE10deallocateE, align 8
  %1 = load ptr, ptr %var.addr, align 8
  call void %0(ptr noundef %1)
  ret void
}

; Function Attrs: mustprogress uwtable
define internal void @_ZN4pugi4impl12_GLOBAL__N_121delete_xpath_variableINS1_21xpath_variable_stringEEEvPT_(ptr noundef %var) #2 {
entry:
  %var.addr = alloca ptr, align 8
  store ptr %var, ptr %var.addr, align 8
  %0 = load ptr, ptr %var.addr, align 8
  call void @_ZN4pugi4impl12_GLOBAL__N_121xpath_variable_stringD2Ev(ptr noundef nonnull align 8 dereferenceable(25) %0) #9
  %1 = load ptr, ptr @_ZN4pugi4impl12_GLOBAL__N_138xml_memory_management_function_storageIiE10deallocateE, align 8
  %2 = load ptr, ptr %var.addr, align 8
  call void %1(ptr noundef %2)
  ret void
}

; Function Attrs: mustprogress uwtable
define internal void @_ZN4pugi4impl12_GLOBAL__N_121delete_xpath_variableINS1_21xpath_variable_numberEEEvPT_(ptr noundef %var) #2 {
entry:
  %var.addr = alloca ptr, align 8
  store ptr %var, ptr %var.addr, align 8
  %0 = load ptr, ptr @_ZN4pugi4impl12_GLOBAL__N_138xml_memory_management_function_storageIiE10deallocateE, align 8
  %1 = load ptr, ptr %var.addr, align 8
  call void %0(ptr noundef %1)
  ret void
}

; Function Attrs: mustprogress uwtable
define internal void @_ZN4pugi4impl12_GLOBAL__N_121delete_xpath_variableINS1_23xpath_variable_node_setEEEvPT_(ptr noundef %var) #2 {
entry:
  %var.addr = alloca ptr, align 8
  store ptr %var, ptr %var.addr, align 8
  %0 = load ptr, ptr %var.addr, align 8
  call void @_ZN4pugi4impl12_GLOBAL__N_123xpath_variable_node_setD2Ev(ptr noundef nonnull align 8 dereferenceable(57) %0) #9
  %1 = load ptr, ptr @_ZN4pugi4impl12_GLOBAL__N_138xml_memory_management_function_storageIiE10deallocateE, align 8
  %2 = load ptr, ptr %var.addr, align 8
  call void %1(ptr noundef %2)
  ret void
}

; Function Attrs: mustprogress uwtable
define internal void @_ZN4pugi4impl12_GLOBAL__N_121delete_xpath_variableENS_16xpath_value_typeEPNS_14xpath_variableE(i32 noundef %type, ptr noundef %var) #2 {
entry:
  %type.addr = alloca i32, align 4
  %var.addr = alloca ptr, align 8
  store i32 %type, ptr %type.addr, align 4
  store ptr %var, ptr %var.addr, align 8
  %0 = load i32, ptr %type.addr, align 4
  switch i32 %0, label %sw.default [
    i32 1, label %sw.bb
    i32 2, label %sw.bb1
    i32 3, label %sw.bb2
    i32 4, label %sw.bb3
  ]

sw.bb:                                            ; preds = %entry
  %1 = load ptr, ptr %var.addr, align 8
  call void @_ZN4pugi4impl12_GLOBAL__N_121delete_xpath_variableINS1_23xpath_variable_node_setEEEvPT_(ptr noundef %1)
  br label %sw.epilog

sw.bb1:                                           ; preds = %entry
  %2 = load ptr, ptr %var.addr, align 8
  call void @_ZN4pugi4impl12_GLOBAL__N_121delete_xpath_variableINS1_21xpath_variable_numberEEEvPT_(ptr noundef %2)
  br label %sw.epilog

sw.bb2:                                           ; preds = %entry
  %3 = load ptr, ptr %var.addr, align 8
  call void @_ZN4pugi4impl12_GLOBAL__N_121delete_xpath_variableINS1_21xpath_variable_stringEEEvPT_(ptr noundef %3)
  br label %sw.epilog

sw.bb3:                                           ; preds = %entry
  %4 = load ptr, ptr %var.addr, align 8
  call void @_ZN4pugi4impl12_GLOBAL__N_121delete_xpath_variableINS1_22xpath_variable_booleanEEEvPT_(ptr noundef %4)
  br label %sw.epilog

sw.default:                                       ; preds = %entry
  br label %sw.epilog

sw.epilog:                                        ; preds = %sw.default, %sw.bb3, %sw.bb2, %sw.bb1, %sw.bb
  ret void
}

; Function Attrs: mustprogress uwtable
define void @_ZN4pugi18xpath_variable_set8_destroyEPNS_14xpath_variableE(ptr noundef %var) #2 align 2 {
entry:
  %var.addr = alloca ptr, align 8
  %next = alloca ptr, align 8
  store ptr %var, ptr %var.addr, align 8
  br label %while.cond

while.cond:                                       ; preds = %while.body, %entry
  %0 = load ptr, ptr %var.addr, align 8
  %tobool = icmp ne ptr %0, null
  br i1 %tobool, label %while.body, label %while.end

while.body:                                       ; preds = %while.cond
  %1 = load ptr, ptr %var.addr, align 8
  %_next = getelementptr inbounds %"class.pugi::xpath_variable", ptr %1, i32 0, i32 1
  %2 = load ptr, ptr %_next, align 8
  store ptr %2, ptr %next, align 8
  %3 = load ptr, ptr %var.addr, align 8
  %_type = getelementptr inbounds %"class.pugi::xpath_variable", ptr %3, i32 0, i32 0
  %4 = load i32, ptr %_type, align 8
  %5 = load ptr, ptr %var.addr, align 8
  call void @_ZN4pugi4impl12_GLOBAL__N_121delete_xpath_variableENS_16xpath_value_typeEPNS_14xpath_variableE(i32 noundef %4, ptr noundef %5)
  %6 = load ptr, ptr %next, align 8
  store ptr %6, ptr %var.addr, align 8
  br label %while.cond, !llvm.loop !47

while.end:                                        ; preds = %while.cond
  ret void
}

; Function Attrs: mustprogress nounwind uwtable
define noundef nonnull align 8 dereferenceable(512) ptr @_ZN4pugi18xpath_variable_setaSEOS0_(ptr noundef nonnull align 8 dereferenceable(512) %this, ptr noundef nonnull align 8 dereferenceable(512) %rhs) #0 align 2 personality ptr @__gxx_personality_v0 {
entry:
  %this.addr = alloca ptr, align 8
  %rhs.addr = alloca ptr, align 8
  %i = alloca i64, align 8
  store ptr %this, ptr %this.addr, align 8
  store ptr %rhs, ptr %rhs.addr, align 8
  %this1 = load ptr, ptr %this.addr, align 8
  store i64 0, ptr %i, align 8
  br label %for.cond

for.cond:                                         ; preds = %for.inc, %entry
  %0 = load i64, ptr %i, align 8
  %cmp = icmp ult i64 %0, 64
  br i1 %cmp, label %for.body, label %for.end

for.body:                                         ; preds = %for.cond
  %_data = getelementptr inbounds %"class.pugi::xpath_variable_set", ptr %this1, i32 0, i32 0
  %1 = load i64, ptr %i, align 8
  %arrayidx = getelementptr inbounds [64 x ptr], ptr %_data, i64 0, i64 %1
  %2 = load ptr, ptr %arrayidx, align 8
  invoke void @_ZN4pugi18xpath_variable_set8_destroyEPNS_14xpath_variableE(ptr noundef %2)
          to label %invoke.cont unwind label %terminate.lpad

invoke.cont:                                      ; preds = %for.body
  %3 = load ptr, ptr %rhs.addr, align 8
  %_data2 = getelementptr inbounds %"class.pugi::xpath_variable_set", ptr %3, i32 0, i32 0
  %4 = load i64, ptr %i, align 8
  %arrayidx3 = getelementptr inbounds [64 x ptr], ptr %_data2, i64 0, i64 %4
  %5 = load ptr, ptr %arrayidx3, align 8
  %_data4 = getelementptr inbounds %"class.pugi::xpath_variable_set", ptr %this1, i32 0, i32 0
  %6 = load i64, ptr %i, align 8
  %arrayidx5 = getelementptr inbounds [64 x ptr], ptr %_data4, i64 0, i64 %6
  store ptr %5, ptr %arrayidx5, align 8
  %7 = load ptr, ptr %rhs.addr, align 8
  %_data6 = getelementptr inbounds %"class.pugi::xpath_variable_set", ptr %7, i32 0, i32 0
  %8 = load i64, ptr %i, align 8
  %arrayidx7 = getelementptr inbounds [64 x ptr], ptr %_data6, i64 0, i64 %8
  store ptr null, ptr %arrayidx7, align 8
  br label %for.inc

for.inc:                                          ; preds = %invoke.cont
  %9 = load i64, ptr %i, align 8
  %inc = add i64 %9, 1
  store i64 %inc, ptr %i, align 8
  br label %for.cond, !llvm.loop !51

for.end:                                          ; preds = %for.cond
  ret ptr %this1

terminate.lpad:                                   ; preds = %for.body
  %10 = landingpad { ptr, i32 }
          catch ptr null
  %11 = extractvalue { ptr, i32 } %10, 0
  call void @__clang_call_terminate(ptr %11) #14
  unreachable
}