; Function Attrs: mustprogress nounwind uwtable
define noundef nonnull align 8 dereferenceable(512) ptr @_ZN4pugi18xpath_variable_setaSEOS0_(ptr noundef nonnull returned align 8 dereferenceable(512) %this, ptr nocapture noundef nonnull align 8 dereferenceable(512) %rhs) local_unnamed_addr #13 align 2 personality ptr @__gxx_personality_v0 {
entry:
  br label %for.body

for.body:                                         ; preds = %entry, %invoke.cont
  %i.07 = phi i64 [ 0, %entry ], [ %inc, %invoke.cont ]
  %arrayidx = getelementptr inbounds [64 x ptr], ptr %this, i64 0, i64 %i.07
  %0 = load ptr, ptr %arrayidx, align 8
  %tobool.not4.i = icmp eq ptr %0, null
  br i1 %tobool.not4.i, label %invoke.cont, label %while.body.i

while.body.i:                                     ; preds = %for.body, %_ZN4pugi4impl12_GLOBAL__N_121delete_xpath_variableENS_16xpath_value_typeEPNS_14xpath_variableE.exit.i
  %var.addr.05.i = phi ptr [ %1, %_ZN4pugi4impl12_GLOBAL__N_121delete_xpath_variableENS_16xpath_value_typeEPNS_14xpath_variableE.exit.i ], [ %0, %for.body ]
  %_next.i = getelementptr inbounds i8, ptr %var.addr.05.i, i64 8
  %1 = load ptr, ptr %_next.i, align 8
  %2 = load i32, ptr %var.addr.05.i, align 8
  switch i32 %2, label %_ZN4pugi4impl12_GLOBAL__N_121delete_xpath_variableENS_16xpath_value_typeEPNS_14xpath_variableE.exit.i [
    i32 1, label %sw.bb.i.i
    i32 2, label %_ZN4pugi4impl12_GLOBAL__N_121delete_xpath_variableENS_16xpath_value_typeEPNS_14xpath_variableE.exit.sink.split.i
    i32 3, label %sw.bb2.i.i
    i32 4, label %_ZN4pugi4impl12_GLOBAL__N_121delete_xpath_variableENS_16xpath_value_typeEPNS_14xpath_variableE.exit.sink.split.i
  ]

sw.bb.i.i:                                        ; preds = %while.body.i
  %value.i.i.i.i = getelementptr inbounds i8, ptr %var.addr.05.i, i64 16
  tail call void @_ZN4pugi14xpath_node_setD1Ev(ptr noundef nonnull align 8 dereferenceable(40) %value.i.i.i.i) #42
  br label %_ZN4pugi4impl12_GLOBAL__N_121delete_xpath_variableENS_16xpath_value_typeEPNS_14xpath_variableE.exit.sink.split.i

sw.bb2.i.i:                                       ; preds = %while.body.i
  %3 = getelementptr i8, ptr %var.addr.05.i, i64 16
  %var.val.i.i.i = load ptr, ptr %3, align 8
  %tobool.not.i.i.i.i = icmp eq ptr %var.val.i.i.i, null
  br i1 %tobool.not.i.i.i.i, label %_ZN4pugi4impl12_GLOBAL__N_121delete_xpath_variableENS_16xpath_value_typeEPNS_14xpath_variableE.exit.sink.split.i, label %if.then.i.i.i.i

if.then.i.i.i.i:                                  ; preds = %sw.bb2.i.i
  %4 = load ptr, ptr @_ZN4pugi4impl12_GLOBAL__N_138xml_memory_management_function_storageIiE10deallocateE, align 8
  invoke void %4(ptr noundef nonnull %var.val.i.i.i)
          to label %_ZN4pugi4impl12_GLOBAL__N_121delete_xpath_variableENS_16xpath_value_typeEPNS_14xpath_variableE.exit.sink.split.i unwind label %terminate.lpad.i.i.i.i

terminate.lpad.i.i.i.i:                           ; preds = %if.then.i.i.i.i
  %5 = landingpad { ptr, i32 }
          catch ptr null
  %6 = extractvalue { ptr, i32 } %5, 0
  tail call void @__clang_call_terminate(ptr %6) #41
  unreachable

_ZN4pugi4impl12_GLOBAL__N_121delete_xpath_variableENS_16xpath_value_typeEPNS_14xpath_variableE.exit.sink.split.i: ; preds = %if.then.i.i.i.i, %sw.bb2.i.i, %sw.bb.i.i, %while.body.i, %while.body.i
  %7 = load ptr, ptr @_ZN4pugi4impl12_GLOBAL__N_138xml_memory_management_function_storageIiE10deallocateE, align 8
  invoke void %7(ptr noundef nonnull %var.addr.05.i)
          to label %_ZN4pugi4impl12_GLOBAL__N_121delete_xpath_variableENS_16xpath_value_typeEPNS_14xpath_variableE.exit.i unwind label %terminate.lpad

_ZN4pugi4impl12_GLOBAL__N_121delete_xpath_variableENS_16xpath_value_typeEPNS_14xpath_variableE.exit.i: ; preds = %_ZN4pugi4impl12_GLOBAL__N_121delete_xpath_variableENS_16xpath_value_typeEPNS_14xpath_variableE.exit.sink.split.i, %while.body.i
  %tobool.not.i = icmp eq ptr %1, null
  br i1 %tobool.not.i, label %invoke.cont, label %while.body.i, !llvm.loop !161

invoke.cont:                                      ; preds = %_ZN4pugi4impl12_GLOBAL__N_121delete_xpath_variableENS_16xpath_value_typeEPNS_14xpath_variableE.exit.i, %for.body
  %arrayidx3 = getelementptr inbounds [64 x ptr], ptr %rhs, i64 0, i64 %i.07
  %8 = load ptr, ptr %arrayidx3, align 8
  store ptr %8, ptr %arrayidx, align 8
  store ptr null, ptr %arrayidx3, align 8
  %inc = add nuw nsw i64 %i.07, 1
  %exitcond.not = icmp eq i64 %inc, 64
  br i1 %exitcond.not, label %for.end, label %for.body, !llvm.loop !166

for.end:                                          ; preds = %invoke.cont
  ret ptr %this

terminate.lpad:                                   ; preds = %_ZN4pugi4impl12_GLOBAL__N_121delete_xpath_variableENS_16xpath_value_typeEPNS_14xpath_variableE.exit.sink.split.i
  %9 = landingpad { ptr, i32 }
          catch ptr null
  %10 = extractvalue { ptr, i32 } %9, 0
  tail call void @__clang_call_terminate(ptr %10) #41
  unreachable
}